; Function Attrs: mustprogress uwtable
define noundef zeroext i1 @_ZNK32pxrInternal_v0_24__pxrReserved__15SdfAbstractData15HasSpecAndFieldERKNS_7SdfPathERKNS_7TfTokenEPNS_7VtValueEPNS_11SdfSpecTypeE(ptr noundef nonnull align 8 dereferenceable(24) %0, ptr noundef nonnull align 4 dereferenceable(8) %1, ptr noundef nonnull align 8 dereferenceable(8) %2, ptr noundef %3, ptr nocapture noundef writeonly %4) unnamed_addr #1 align 2 {
  %6 = load ptr, ptr %0, align 8
  %7 = getelementptr inbounds i8, ptr %6, i64 96
  %8 = load ptr, ptr %7, align 8
  %9 = tail call noundef i32 %8(ptr noundef nonnull align 8 dereferenceable(24) %0, ptr noundef nonnull align 4 dereferenceable(8) %1)
  store i32 %9, ptr %4, align 4
  %.not = icmp eq i32 %9, 0
  br i1 %.not, label %15, label %10

10:                                               ; preds = %5
  %11 = load ptr, ptr %0, align 8
  %12 = getelementptr inbounds i8, ptr %11, i64 112
  %13 = load ptr, ptr %12, align 8
  %14 = tail call noundef zeroext i1 %13(ptr noundef nonnull align 8 dereferenceable(24) %0, ptr noundef nonnull align 4 dereferenceable(8) %1, ptr noundef nonnull align 8 dereferenceable(8) %2, ptr noundef %3)
  br label %15

15:                                               ; preds = %10, %5
  %16 = phi i1 [ false, %5 ], [ %14, %10 ]
  ret i1 %16
}